; Function Attrs: mustprogress nounwind uwtable
define hidden void @_ZN16LogConfiguration15post_initializeEv() local_unnamed_addr #0 align 2 {
  %1 = alloca %class.LogImpl, align 1
  %2 = alloca %class.LogStream, align 8
  %3 = alloca %class.LogStream, align 8
  %4 = load i64, ptr @_ZN16LogConfiguration10_n_outputsE, align 8
  %.not5 = icmp eq i64 %4, 0
  br i1 %.not5, label %._crit_edge, label %.lr.ph

.lr.ph:                                           ; preds = %0
  %5 = load ptr, ptr @_ZN16LogConfiguration8_outputsE, align 8
  br label %6

6:                                                ; preds = %.lr.ph, %6
  %.04 = phi i64 [ 0, %.lr.ph ], [ %10, %6 ]
  %7 = getelementptr inbounds ptr, ptr %5, i64 %.04
  %8 = load ptr, ptr %7, align 8
  %9 = getelementptr inbounds i8, ptr %8, i64 8
  store i8 0, ptr %9, align 8
  %10 = add nuw i64 %.04, 1
  %exitcond.not = icmp eq i64 %10, %4
  br i1 %exitcond.not, label %._crit_edge, label %6, !llvm.loop !6

._crit_edge:                                      ; preds = %6, %0
  tail call void @_ZN20LogDiagnosticCommand15registerCommandEv() #11
  %11 = load volatile ptr, ptr getelementptr inbounds (i8, ptr @_ZN16LogTagSetMappingILN6LogTag4typeE76ELS1_0ELS1_0ELS1_0ELS1_0ELS1_0EE7_tagsetE, i64 64), align 8
  %.not = icmp eq ptr %11, null
  br i1 %.not, label %36, label %12

12:                                               ; preds = %._crit_edge
  %13 = call noundef nonnull align 1 dereferenceable(1) ptr (ptr, ptr, ...) @_ZN7LogImplILN6LogTag4typeE76ELS1_0ELS1_0ELS1_0ELS1_0ELS1_0EE4infoEPKcz(ptr noundef nonnull align 1 dereferenceable(1) %1, ptr noundef nonnull @.str)
  call void @_ZN12outputStreamC2Eb(ptr noundef nonnull align 8 dereferenceable(56) %2, i1 noundef zeroext false) #11
  store ptr getelementptr inbounds inrange(-16, 40) (i8, ptr @_ZTV17LogStreamImplBase, i64 16), ptr %2, align 8
  %14 = getelementptr inbounds i8, ptr %2, i64 56
  call void @_ZN17LogStreamImplBase10LineBufferC1Ev(ptr noundef nonnull align 8 dereferenceable(88) %14) #11
  %15 = getelementptr inbounds i8, ptr %2, i64 144
  store i32 3, ptr %15, align 8
  %.sroa.21.0..sroa_idx.i.i = getelementptr inbounds i8, ptr %2, i64 152
  store ptr @_ZN16LogTagSetMappingILN6LogTag4typeE76ELS1_0ELS1_0ELS1_0ELS1_0ELS1_0EE7_tagsetE, ptr %.sroa.21.0..sroa_idx.i.i, align 8
  store ptr getelementptr inbounds inrange(-16, 40) (i8, ptr @_ZTV9LogStream, i64 16), ptr %2, align 8
  call void @_ZN16LogConfiguration18describe_availableEP12outputStream(ptr noundef nonnull %2)
  call void @_ZN12outputStreamC2Eb(ptr noundef nonnull align 8 dereferenceable(56) %3, i1 noundef zeroext false) #11
  store ptr getelementptr inbounds inrange(-16, 40) (i8, ptr @_ZTV17LogStreamImplBase, i64 16), ptr %3, align 8
  %16 = getelementptr inbounds i8, ptr %3, i64 56
  call void @_ZN17LogStreamImplBase10LineBufferC1Ev(ptr noundef nonnull align 8 dereferenceable(88) %16) #11
  %17 = getelementptr inbounds i8, ptr %3, i64 144
  store i32 2, ptr %17, align 8
  %.sroa.21.0..sroa_idx.i.i3 = getelementptr inbounds i8, ptr %3, i64 152
  store ptr @_ZN16LogTagSetMappingILN6LogTag4typeE76ELS1_0ELS1_0ELS1_0ELS1_0ELS1_0EE7_tagsetE, ptr %.sroa.21.0..sroa_idx.i.i3, align 8
  store ptr getelementptr inbounds inrange(-16, 40) (i8, ptr @_ZTV9LogStream, i64 16), ptr %3, align 8
  call void @_ZN9LogTagSet16list_all_tagsetsEP12outputStream(ptr noundef nonnull %3) #11
  call void @_ZN14PosixSemaphore4waitEv(ptr noundef nonnull align 8 dereferenceable(32) @_ZN17ConfigurationLock10_semaphoreE) #11
  call void (ptr, ptr, ...) @_ZN12outputStream8print_crEPKcz(ptr noundef nonnull align 8 dereferenceable(56) %2, ptr noundef nonnull @.str.27) #11
  %18 = load i64, ptr @_ZN16LogConfiguration10_n_outputsE, align 8
  %.not.i = icmp eq i64 %18, 0
  br i1 %.not.i, label %_ZN16LogConfiguration30describe_current_configurationEP12outputStream.exit, label %.lr.ph.i

.lr.ph.i:                                         ; preds = %12, %32
  %.09.i = phi i64 [ %33, %32 ], [ 0, %12 ]
  call void (ptr, ptr, ...) @_ZN12outputStream5printEPKcz(ptr noundef nonnull align 8 dereferenceable(56) %2, ptr noundef nonnull @.str.28, i64 noundef %.09.i) #11
  %19 = load ptr, ptr @_ZN16LogConfiguration8_outputsE, align 8
  %20 = getelementptr inbounds ptr, ptr %19, i64 %.09.i
  %21 = load ptr, ptr %20, align 8
  %22 = load ptr, ptr %21, align 8
  %23 = getelementptr inbounds i8, ptr %22, i64 24
  %24 = load ptr, ptr %23, align 8
  call void %24(ptr noundef nonnull align 8 dereferenceable(156) %21, ptr noundef nonnull %2) #11
  %25 = load ptr, ptr @_ZN16LogConfiguration8_outputsE, align 8
  %26 = getelementptr inbounds ptr, ptr %25, i64 %.09.i
  %27 = load ptr, ptr %26, align 8
  %28 = getelementptr inbounds i8, ptr %27, i64 8
  %29 = load i8, ptr %28, align 8
  %30 = trunc i8 %29 to i1
  br i1 %30, label %31, label %32

31:                                               ; preds = %.lr.ph.i
  call void (ptr, ptr, ...) @_ZN12outputStream5printEPKcz(ptr noundef nonnull align 8 dereferenceable(56) %2, ptr noundef nonnull @.str.29) #11
  br label %32

32:                                               ; preds = %31, %.lr.ph.i
  call void @_ZN12outputStream2crEv(ptr noundef nonnull align 8 dereferenceable(56) %2) #11
  %33 = add nuw i64 %.09.i, 1
  %34 = load i64, ptr @_ZN16LogConfiguration10_n_outputsE, align 8
  %35 = icmp ult i64 %33, %34
  br i1 %35, label %.lr.ph.i, label %_ZN16LogConfiguration30describe_current_configurationEP12outputStream.exit, !llvm.loop !8

_ZN16LogConfiguration30describe_current_configurationEP12outputStream.exit: ; preds = %32, %12
  call void @_ZN14PosixSemaphore6signalEj(ptr noundef nonnull align 8 dereferenceable(32) @_ZN17ConfigurationLock10_semaphoreE, i32 noundef 1) #11
  call void @_ZN13LogStreamImplI15LogTargetHandleED2Ev(ptr noundef nonnull align 8 dereferenceable(160) %3) #11
  call void @_ZN13LogStreamImplI15LogTargetHandleED2Ev(ptr noundef nonnull align 8 dereferenceable(160) %2) #11
  br label %36

36:                                               ; preds = %_ZN16LogConfiguration30describe_current_configurationEP12outputStream.exit, %._crit_edge
  ret void
}